; Function Attrs: nounwind sspstrong uwtable
define internal noundef i64 @ossl_sslctx_set_ciphers(i64 noundef %0, i64 noundef returned %1) #0 {
  %3 = alloca i64, align 8
  call void @llvm.lifetime.start.p0(i64 8, ptr nonnull %3) #9
  %4 = icmp eq i64 %0, 0
  %5 = and i64 %0, 7
  %6 = icmp ne i64 %5, 0
  %7 = or i1 %4, %6
  br i1 %7, label %RB_OBJ_FROZEN.exit.thread.i, label %RB_FL_ABLE.exit.i.i, !prof !17

RB_FL_ABLE.exit.i.i:                              ; preds = %2
  %8 = inttoptr i64 %0 to ptr
  %9 = load i64, ptr %8, align 8, !tbaa !18
  %10 = and i64 %9, 31
  %.not.i.i = icmp eq i64 %10, 27
  %11 = and i64 %9, 2048
  %12 = icmp ne i64 %11, 0
  %or.cond.i = or i1 %.not.i.i, %12
  br i1 %or.cond.i, label %RB_OBJ_FROZEN.exit.thread.i, label %rbimpl_RB_TYPE_P_fastpath.exit.i, !prof !19

RB_OBJ_FROZEN.exit.thread.i:                      ; preds = %RB_FL_ABLE.exit.i.i, %2
  tail call void @rb_error_frozen_object(i64 noundef %0) #10
  unreachable

rbimpl_RB_TYPE_P_fastpath.exit.i:                 ; preds = %RB_FL_ABLE.exit.i.i
  %13 = icmp ne i64 %10, 5
  %14 = and i64 %9, 49152
  %.not.i = icmp eq i64 %14, 0
  %or.cond8.i = or i1 %13, %.not.i
  br i1 %or.cond8.i, label %rb_check_frozen_inline.exit, label %15, !prof !20

15:                                               ; preds = %rbimpl_RB_TYPE_P_fastpath.exit.i
  tail call void @rb_str_modify(i64 noundef %0) #9
  br label %rb_check_frozen_inline.exit

rb_check_frozen_inline.exit:                      ; preds = %rbimpl_RB_TYPE_P_fastpath.exit.i, %15
  %16 = icmp eq i64 %1, 4
  br i1 %16, label %24, label %17

17:                                               ; preds = %rb_check_frozen_inline.exit
  %18 = tail call fastcc i64 @build_cipher_string(i64 noundef %1)
  store i64 %18, ptr %3, align 8, !tbaa !10
  %19 = tail call ptr @rb_check_typeddata(i64 noundef %0, ptr noundef nonnull @ossl_sslctx_type) #9
  %20 = call ptr @rb_string_value_cstr(ptr noundef nonnull %3) #9
  %21 = call i32 @SSL_CTX_set_cipher_list(ptr noundef %19, ptr noundef %20) #9
  %.not = icmp eq i32 %21, 0
  br i1 %.not, label %22, label %24

22:                                               ; preds = %17
  %23 = load i64, ptr @eSSLError, align 8, !tbaa !10
  call void (i64, ptr, ...) @ossl_raise(i64 noundef %23, ptr noundef nonnull @.str.196) #10
  unreachable

24:                                               ; preds = %17, %rb_check_frozen_inline.exit
  call void @llvm.lifetime.end.p0(i64 8, ptr nonnull %3) #9
  ret i64 %1
}